(dp0
VServer
p1
Vcmsweb.cern.ch
p2
sVPort
p3
V
p4
sVRequestName
p5
V240917_060524:pvaucell_crab_HVscan_20240910_run385515_v1
p6
sVvoRole
p7
VNULL
p8
sVvoGroup
p9
g4
sVinstance
p10
Vprod
p11
sVOriginalConfig
p12
ccopy_reg
_reconstructor
p13
(cWMCore.Configuration
Configuration
p14
c__builtin__
object
p15
Ntp16
Rp17
(dp18
V_internal_sections
p19
(lp20
VGeneral
p21
aVJobType
p22
aVData
p23
aVSite
p24
aVUser
p25
aVDebug
p26
asg21
g13
(cWMCore.Configuration
ConfigSection
p27
g15
Ntp28
Rp29
(dp30
V_internal_documentation
p31
g4
sV_internal_name
p32
g21
sV_internal_settings
p33
c__builtin__
set
p34
((lp35
VrequestName
p36
aVtransferLogs
p37
aVtransferOutputs
p38
aVworkArea
p39
atp40
Rp41
sV_internal_docstrings
p42
(dp43
sV_internal_children
p44
g34
((lp45
tp46
Rp47
sV_internal_parent_ref
p48
NsV_internal_skipChecks
p49
I00
sg36
VHVscan_20240910_run385515_v1
p50
sg39
Vcrab_projects
p51
sg38
I01
sg37
I00
sbsg22
g13
(g27
g15
Ntp52
Rp53
(dp54
g31
g4
sg32
g22
sg33
g34
((lp55
VpluginName
p56
aVpsetName
p57
atp58
Rp59
sg42
(dp60
sg44
g34
((lp61
tp62
Rp63
sg48
Nsg49
I00
sg56
VAnalysis
p64
sg57
Vsignalbiasscan_20240910_run385515_cfg.py
p65
sbsg23
g13
(g27
g15
Ntp66
Rp67
(dp68
g31
g4
sg32
g23
sg33
g34
((lp69
VlumiMask
p70
aVrunRange
p71
aVunitsPerJob
p72
aVinputDBS
p73
aVpublication
p74
aVinputDataset
p75
aVsplitting
p76
aVoutLFNDirBase
p77
atp78
Rp79
sg42
(dp80
sg44
g34
((lp81
tp82
Rp83
sg48
Nsg49
I00
sg75
V/StreamExpress/Run2024G-SiStripCalMinBias-Express-v1/ALCARECO
p84
sg73
Vglobal
p85
sg76
VLumiBased
p86
sg72
I10
sg70
VDecoSmallHVScan_20240910_run385515_JSON.txt
p87
sg71
V385515
p88
sg77
V/store/group/dpg_tracker_strip/comm_tracker/Strip/RadMonitoring/SignalBiasScan/ClustersTrees/DecoSmallHVscan_20240910_run385515_v1
p89
sg74
I00
sbsg24
g13
(g27
g15
Ntp90
Rp91
(dp92
g31
g4
sg32
g24
sg33
g34
((lp93
VstorageSite
p94
atp95
Rp96
sg42
(dp97
sg44
g34
((lp98
tp99
Rp100
sg48
Nsg49
I00
sg94
VT2_CH_CERN
p101
sbsg25
g13
(g27
g15
Ntp102
Rp103
(dp104
g31
g4
sg32
g25
sg33
g34
((lp105
tp106
Rp107
sg42
(dp108
sg44
g34
((lp109
tp110
Rp111
sg48
Nsg49
I00
sbsg26
g13
(g27
g15
Ntp112
Rp113
(dp114
g31
g4
sg32
g26
sg33
g34
((lp115
tp116
Rp117
sg42
(dp118
sg44
g34
((lp119
tp120
Rp121
sg48
Nsg49
I00
sbsbs.