(dp0
VServer
p1
Vcmsweb.cern.ch
p2
sVPort
p3
V
p4
sVRequestName
p5
V240917_060546:pvaucell_crab_HVscan_20240702_run382655_v1
p6
sVvoRole
p7
VNULL
p8
sVvoGroup
p9
g4
sVinstance
p10
Vprod
p11
sVOriginalConfig
p12
ccopy_reg
_reconstructor
p13
(cWMCore.Configuration
Configuration
p14
c__builtin__
object
p15
Ntp16
Rp17
(dp18
V_internal_sections
p19
(lp20
VGeneral
p21
aVJobType
p22
aVData
p23
aVSite
p24
aVUser
p25
aVDebug
p26
asg21
g13
(cWMCore.Configuration
ConfigSection
p27
g15
Ntp28
Rp29
(dp30
V_internal_documentation
p31
g4
sV_internal_name
p32
g21
sV_internal_settings
p33
c__builtin__
set
p34
((lp35
VtransferLogs
p36
aVworkArea
p37
aVrequestName
p38
aVtransferOutputs
p39
atp40
Rp41
sV_internal_docstrings
p42
(dp43
sV_internal_children
p44
g34
((lp45
tp46
Rp47
sV_internal_parent_ref
p48
NsV_internal_skipChecks
p49
I00
sg38
VHVscan_20240702_run382655_v1
p50
sg37
Vcrab_projects
p51
sg39
I01
sg36
I00
sbsg22
g13
(g27
g15
Ntp52
Rp53
(dp54
g31
g4
sg32
g22
sg33
g34
((lp55
VpsetName
p56
aVpluginName
p57
atp58
Rp59
sg42
(dp60
sg44
g34
((lp61
tp62
Rp63
sg48
Nsg49
I00
sg57
VAnalysis
p64
sg56
Vsignalbiasscan_20240702_run382655_cfg.py
p65
sbsg23
g13
(g27
g15
Ntp66
Rp67
(dp68
g31
g4
sg32
g23
sg33
g34
((lp69
Vpublication
p70
aVrunRange
p71
aVsplitting
p72
aVlumiMask
p73
aVinputBlocks
p74
aVunitsPerJob
p75
aVinputDataset
p76
aVoutLFNDirBase
p77
aVinputDBS
p78
atp79
Rp80
sg42
(dp81
sg44
g34
((lp82
tp83
Rp84
sg48
Nsg49
I00
sg76
V/ZeroBias/Run2024F-SiStripCalMinBias-PromptReco-v1/ALCARECO
p85
sg74
(lp86
V/ZeroBias/Run2024F-SiStripCalMinBias-PromptReco-v1/ALCARECO#9917ddf9-bdc5-4409-882d-3e3c582975c0
p87
asg78
Vglobal
p88
sg72
VLumiBased
p89
sg75
I10
sg73
VDecoSmallHVScan_20240702_run382655_JSON.txt
p90
sg71
V382655
p91
sg77
V/store/group/dpg_tracker_strip/comm_tracker/Strip/RadMonitoring/SignalBiasScan/ClustersTrees/DecoSmallHVscan_20240702_run382655_v1
p92
sg70
I00
sbsg24
g13
(g27
g15
Ntp93
Rp94
(dp95
g31
g4
sg32
g24
sg33
g34
((lp96
VstorageSite
p97
atp98
Rp99
sg42
(dp100
sg44
g34
((lp101
tp102
Rp103
sg48
Nsg49
I00
sg97
VT2_CH_CERN
p104
sbsg25
g13
(g27
g15
Ntp105
Rp106
(dp107
g31
g4
sg32
g25
sg33
g34
((lp108
tp109
Rp110
sg42
(dp111
sg44
g34
((lp112
tp113
Rp114
sg48
Nsg49
I00
sbsg26
g13
(g27
g15
Ntp115
Rp116
(dp117
g31
g4
sg32
g26
sg33
g34
((lp118
tp119
Rp120
sg42
(dp121
sg44
g34
((lp122
tp123
Rp124
sg48
Nsg49
I00
sbsbs.